; Function Attrs: mustprogress nounwind uwtable
define hidden void @_ZN3mbp12mbp_array_tgD0Ev(ptr noundef nonnull align 8 dereferenceable(16) initializes((0, 8)) %0) unnamed_addr #7 align 2 personality ptr @__gxx_personality_v0 {
  store ptr getelementptr inbounds nuw inrange(-16, 48) (i8, ptr @_ZTVN3mbp12mbp_array_tgE, i64 16), ptr %0, align 8, !tbaa !164
  %2 = getelementptr inbounds nuw i8, ptr %0, i64 8
  %3 = load ptr, ptr %2, align 8, !tbaa !3
  %4 = icmp eq ptr %3, null
  br i1 %4, label %_ZN3mbp12mbp_array_tgD2Ev.exit, label %5

5:                                                ; preds = %1
  tail call void @_ZN3mbp12mbp_array_tg4implD2Ev(ptr noundef nonnull align 8 dereferenceable(200) %3) #23
  invoke void @_ZN6memory10deallocateEPv(ptr noundef nonnull %3)
          to label %_ZN3mbp12mbp_array_tgD2Ev.exit unwind label %6

6:                                                ; preds = %5
  %7 = landingpad { ptr, i32 }
          catch ptr null
  %8 = extractvalue { ptr, i32 } %7, 0
  tail call void @__clang_call_terminate(ptr %8) #24
  unreachable

_ZN3mbp12mbp_array_tgD2Ev.exit:                   ; preds = %1, %5
  tail call void @_ZdlPvm(ptr noundef nonnull %0, i64 noundef 16) #25
  ret void
}